target datalayout = "e-m:e-p270:32:32-p271:32:32-p272:64:64-i64:64-i128:128-f80:128-n8:16:32:64-S128"
target triple = "x86_64-unknown-linux-gnu"

%"class.facebook::velox::HashStringAllocator::Header" = type { i32 }

@_ZN8facebook5velox19HashStringAllocator9kMinAllocE = linkonce_odr constant i32 16, comdat, align 4

; Function Attrs: mustprogress nounwind uwtable
define linkonce_odr noundef ptr @_ZN8facebook5velox19HashStringAllocator6Header5beginEv(ptr noundef nonnull align 4 dereferenceable(4) %this) #2 comdat align 2 {
entry:
  %this.addr = alloca ptr, align 8
  store ptr %this, ptr %this.addr, align 8
  %this1 = load ptr, ptr %this.addr, align 8
  %add.ptr = getelementptr inbounds %"class.facebook::velox::HashStringAllocator::Header", ptr %this1, i64 1
  ret ptr %add.ptr
}

; Function Attrs: mustprogress nounwind uwtable
define linkonce_odr void @_ZN8facebook5velox19HashStringAllocator6HeaderC2Ej(ptr noundef nonnull align 4 dereferenceable(4) %this, i32 noundef %size) unnamed_addr #2 comdat align 2 {
entry:
  %this.addr = alloca ptr, align 8
  %size.addr = alloca i32, align 4
  store ptr %this, ptr %this.addr, align 8
  store i32 %size, ptr %size.addr, align 4
  %this1 = load ptr, ptr %this.addr, align 8
  %data_ = getelementptr inbounds %"class.facebook::velox::HashStringAllocator::Header", ptr %this1, i32 0, i32 0
  %0 = load i32, ptr %size.addr, align 4
  store i32 %0, ptr %data_, align 4
  %1 = load i32, ptr %size.addr, align 4
  %cmp = icmp ule i32 %1, 536870911
  %lnot = xor i1 %cmp, true
  br i1 %lnot, label %if.then, label %if.end

if.then:                                          ; preds = %entry
  call void @llvm.trap()
  br label %if.end

if.end:                                           ; preds = %if.then, %entry
  ret void
}

; Function Attrs: mustprogress nounwind uwtable
define linkonce_odr noundef ptr @_ZN8facebook5velox19HashStringAllocator6Header3endEv(ptr noundef nonnull align 4 dereferenceable(4) %this) #2 comdat align 2 {
entry:
  %this.addr = alloca ptr, align 8
  store ptr %this, ptr %this.addr, align 8
  %this1 = load ptr, ptr %this.addr, align 8
  %call = call noundef ptr @_ZN8facebook5velox19HashStringAllocator6Header5beginEv(ptr noundef nonnull align 4 dereferenceable(4) %this1)
  %call2 = call noundef i32 @_ZNK8facebook5velox19HashStringAllocator6Header4sizeEv(ptr noundef nonnull align 4 dereferenceable(4) %this1)
  %idx.ext = sext i32 %call2 to i64
  %add.ptr = getelementptr inbounds i8, ptr %call, i64 %idx.ext
  ret ptr %add.ptr
}

; Function Attrs: mustprogress nounwind uwtable
define linkonce_odr void @_ZN8facebook5velox19HashStringAllocator6Header7setSizeEi(ptr noundef nonnull align 4 dereferenceable(4) %this, i32 noundef %size) #2 comdat align 2 {
entry:
  %this.addr = alloca ptr, align 8
  %size.addr = alloca i32, align 4
  store ptr %this, ptr %this.addr, align 8
  store i32 %size, ptr %size.addr, align 4
  %this1 = load ptr, ptr %this.addr, align 8
  %0 = load i32, ptr %size.addr, align 4
  %cmp = icmp ule i32 %0, 536870911
  %lnot = xor i1 %cmp, true
  br i1 %lnot, label %if.then, label %if.end

if.then:                                          ; preds = %entry
  call void @llvm.trap()
  br label %if.end

if.end:                                           ; preds = %if.then, %entry
  %1 = load i32, ptr %size.addr, align 4
  %data_ = getelementptr inbounds %"class.facebook::velox::HashStringAllocator::Header", ptr %this1, i32 0, i32 0
  %2 = load i32, ptr %data_, align 4
  %and = and i32 %2, -536870912
  %or = or i32 %1, %and
  %data_2 = getelementptr inbounds %"class.facebook::velox::HashStringAllocator::Header", ptr %this1, i32 0, i32 0
  store i32 %or, ptr %data_2, align 4
  ret void
}

; Function Attrs: mustprogress nounwind uwtable
define linkonce_odr noundef i32 @_ZNK8facebook5velox19HashStringAllocator6Header4sizeEv(ptr noundef nonnull align 4 dereferenceable(4) %this) #2 comdat align 2 {
entry:
  %this.addr = alloca ptr, align 8
  store ptr %this, ptr %this.addr, align 8
  %this1 = load ptr, ptr %this.addr, align 8
  %data_ = getelementptr inbounds %"class.facebook::velox::HashStringAllocator::Header", ptr %this1, i32 0, i32 0
  %0 = load i32, ptr %data_, align 4
  %and = and i32 %0, 536870911
  ret i32 %and
}

; Function Attrs: mustprogress nounwind uwtable
define linkonce_odr noundef nonnull align 4 dereferenceable(4) ptr @_ZSt3maxIiERKT_S2_S2_(ptr noundef nonnull align 4 dereferenceable(4) %__a, ptr noundef nonnull align 4 dereferenceable(4) %__b) #2 comdat {
entry:
  %retval = alloca ptr, align 8
  %__a.addr = alloca ptr, align 8
  %__b.addr = alloca ptr, align 8
  store ptr %__a, ptr %__a.addr, align 8
  store ptr %__b, ptr %__b.addr, align 8
  %0 = load ptr, ptr %__a.addr, align 8
  %1 = load i32, ptr %0, align 4
  %2 = load ptr, ptr %__b.addr, align 8
  %3 = load i32, ptr %2, align 4
  %cmp = icmp slt i32 %1, %3
  br i1 %cmp, label %if.then, label %if.end

if.then:                                          ; preds = %entry
  %4 = load ptr, ptr %__b.addr, align 8
  store ptr %4, ptr %retval, align 8
  br label %return

if.end:                                           ; preds = %entry
  %5 = load ptr, ptr %__a.addr, align 8
  store ptr %5, ptr %retval, align 8
  br label %return

return:                                           ; preds = %if.end, %if.then
  %6 = load ptr, ptr %retval, align 8
  ret ptr %6
}

; Function Attrs: mustprogress uwtable
define void @_ZN8facebook5velox19HashStringAllocator15freeRestOfBlockEPNS1_6HeaderEi(ptr noundef nonnull align 8 dereferenceable(37416) %this, ptr noundef %header, i32 noundef %keepBytes) #0 align 2 {
entry:
  %this.addr = alloca ptr, align 8
  %header.addr = alloca ptr, align 8
  %keepBytes.addr = alloca i32, align 4
  %freeSize = alloca i32, align 4
  %newHeader = alloca ptr, align 8
  store ptr %this, ptr %this.addr, align 8
  store ptr %header, ptr %header.addr, align 8
  store i32 %keepBytes, ptr %keepBytes.addr, align 4
  %this1 = load ptr, ptr %this.addr, align 8
  %call = call noundef nonnull align 4 dereferenceable(4) ptr @_ZSt3maxIiERKT_S2_S2_(ptr noundef nonnull align 4 dereferenceable(4) %keepBytes.addr, ptr noundef nonnull align 4 dereferenceable(4) @_ZN8facebook5velox19HashStringAllocator9kMinAllocE)
  %0 = load i32, ptr %call, align 4
  store i32 %0, ptr %keepBytes.addr, align 4
  %1 = load ptr, ptr %header.addr, align 8
  %call2 = call noundef i32 @_ZNK8facebook5velox19HashStringAllocator6Header4sizeEv(ptr noundef nonnull align 4 dereferenceable(4) %1)
  %2 = load i32, ptr %keepBytes.addr, align 4
  %sub = sub nsw i32 %call2, %2
  %conv = sext i32 %sub to i64
  %sub3 = sub i64 %conv, 4
  %conv4 = trunc i64 %sub3 to i32
  store i32 %conv4, ptr %freeSize, align 4
  %3 = load i32, ptr %freeSize, align 4
  %cmp = icmp sle i32 %3, 16
  br i1 %cmp, label %if.then, label %if.end

if.then:                                          ; preds = %entry
  br label %return

if.end:                                           ; preds = %entry
  %4 = load ptr, ptr %header.addr, align 8
  %5 = load i32, ptr %keepBytes.addr, align 4
  call void @_ZN8facebook5velox19HashStringAllocator6Header7setSizeEi(ptr noundef nonnull align 4 dereferenceable(4) %4, i32 noundef %5)
  %6 = load ptr, ptr %header.addr, align 8
  %call5 = call noundef ptr @_ZN8facebook5velox19HashStringAllocator6Header3endEv(ptr noundef nonnull align 4 dereferenceable(4) %6)
  %7 = load i32, ptr %freeSize, align 4
  call void @_ZN8facebook5velox19HashStringAllocator6HeaderC2Ej(ptr noundef nonnull align 4 dereferenceable(4) %call5, i32 noundef %7)
  store ptr %call5, ptr %newHeader, align 8
  %8 = load ptr, ptr %newHeader, align 8
  call void @_ZN8facebook5velox19HashStringAllocator4freeEPNS1_6HeaderE(ptr noundef nonnull align 8 dereferenceable(37416) %this1, ptr noundef %8)
  br label %return

return:                                           ; preds = %if.end, %if.then
  ret void
}