; Function Attrs: mustprogress uwtable
define void @_ZN8facebook5velox19HashStringAllocator15freeRestOfBlockEPNS1_6HeaderEi(ptr noundef nonnull align 8 dereferenceable(37416) %this, ptr noundef %header, i32 noundef %keepBytes) local_unnamed_addr #0 align 2 {
entry:
  %.sroa.speculated = tail call i32 @llvm.smax.i32(i32 %keepBytes, i32 16)
  %0 = load i32, ptr %header, align 4
  %and.i = and i32 %0, 536870911
  %sub = sub nsw i32 %and.i, %.sroa.speculated
  %sub3 = add i32 %sub, -4
  %cmp = icmp slt i32 %sub3, 17
  br i1 %cmp, label %return, label %if.end

if.end:                                           ; preds = %entry
  %cmp.i4 = icmp sgt i32 %keepBytes, 536870911
  br i1 %cmp.i4, label %if.then.i, label %_ZN8facebook5velox19HashStringAllocator6Header7setSizeEi.exit

if.then.i:                                        ; preds = %if.end
  tail call void @llvm.trap()
  unreachable

_ZN8facebook5velox19HashStringAllocator6Header7setSizeEi.exit: ; preds = %if.end
  %and.i5 = and i32 %0, -536870912
  %or.i = or disjoint i32 %and.i5, %.sroa.speculated
  store i32 %or.i, ptr %header, align 4
  %add.ptr.i.i = getelementptr inbounds i8, ptr %header, i64 4
  %and.i.i = and i32 %.sroa.speculated, 536870911
  %idx.ext.i = zext nneg i32 %and.i.i to i64
  %add.ptr.i = getelementptr inbounds i8, ptr %add.ptr.i.i, i64 %idx.ext.i
  store i32 %sub3, ptr %add.ptr.i, align 4
  %cmp.i6 = icmp ugt i32 %sub3, 536870911
  br i1 %cmp.i6, label %if.then.i7, label %_ZN8facebook5velox19HashStringAllocator6HeaderC2Ej.exit

if.then.i7:                                       ; preds = %_ZN8facebook5velox19HashStringAllocator6Header7setSizeEi.exit
  tail call void @llvm.trap()
  unreachable

_ZN8facebook5velox19HashStringAllocator6HeaderC2Ej.exit: ; preds = %_ZN8facebook5velox19HashStringAllocator6Header7setSizeEi.exit
  tail call void @_ZN8facebook5velox19HashStringAllocator4freeEPNS1_6HeaderE(ptr noundef nonnull align 8 dereferenceable(37416) %this, ptr noundef nonnull %add.ptr.i)
  br label %return

return:                                           ; preds = %entry, %_ZN8facebook5velox19HashStringAllocator6HeaderC2Ej.exit
  ret void
}